; Function Attrs: nounwind uwtable
define range(i32 0, 2) i32 @tls_do_uncompress(ptr noundef readonly captures(none) %0, ptr noundef captures(none) %1) local_unnamed_addr #0 {
  %3 = getelementptr inbounds nuw i8, ptr %1, i64 48
  %4 = load ptr, ptr %3, align 8, !tbaa !94
  %5 = icmp eq ptr %4, null
  br i1 %5, label %6, label %.thread

6:                                                ; preds = %2
  %7 = tail call noalias ptr @CRYPTO_malloc(i64 noundef 17728, ptr noundef nonnull @.str, i32 noundef 1044) #13
  store ptr %7, ptr %3, align 8, !tbaa !94
  %8 = icmp eq ptr %7, null
  br i1 %8, label %22, label %.thread

.thread:                                          ; preds = %2, %6
  %9 = phi ptr [ %7, %6 ], [ %4, %2 ]
  %10 = getelementptr inbounds nuw i8, ptr %0, i64 4160
  %11 = load ptr, ptr %10, align 8, !tbaa !93
  %12 = getelementptr inbounds nuw i8, ptr %1, i64 32
  %13 = load ptr, ptr %12, align 8, !tbaa !69
  %14 = getelementptr inbounds nuw i8, ptr %1, i64 8
  %15 = load i64, ptr %14, align 8, !tbaa !65
  %16 = trunc i64 %15 to i32
  %17 = tail call i32 @COMP_expand_block(ptr noundef %11, ptr noundef nonnull %9, i32 noundef 16384, ptr noundef %13, i32 noundef %16) #13
  %18 = icmp slt i32 %17, 0
  br i1 %18, label %22, label %19

19:                                               ; preds = %.thread
  %20 = zext nneg i32 %17 to i64
  store i64 %20, ptr %14, align 8, !tbaa !65
  %21 = load ptr, ptr %3, align 8, !tbaa !94
  store ptr %21, ptr %12, align 8, !tbaa !69
  br label %22

22:                                               ; preds = %.thread, %6, %19
  %.0 = phi i32 [ 1, %19 ], [ 0, %6 ], [ 0, %.thread ]
  ret i32 %.0
}